(dp1
S'failed'
p2
(lp3
sS'source_names'
p4
(lp5
S'.'
asS'ids'
p6
(dp7
I1
(S'/Users/msmith2/Projects/personal/GameServer/new_python/muse/test_db.py'
S'muse.test_db'
p8
S'DatabaseObjectProperties.test_has_property_method'
tp9
sI2
(S'/Users/msmith2/Projects/personal/GameServer/new_python/muse/test_db.py'
g8
S'DatabaseObjectTests.test_cannot_change_reference'
tp10
sI3
(S'/Users/msmith2/Projects/personal/GameServer/new_python/muse/test_db.py'
g8
S'DatabaseObjectTests.test_has_id'
tp11
sI4
(S'/Users/msmith2/Projects/personal/GameServer/new_python/muse/test_db.py'
g8
S'DatabaseObjectTests.test_has_name'
tp12
sI5
(S'/Users/msmith2/Projects/personal/GameServer/new_python/muse/test_db.py'
g8
S'DatabaseObjectTests.test_has_type'
tp13
sI6
(S'/Users/msmith2/Projects/personal/GameServer/new_python/muse/test_db.py'
g8
S'DatabasePersistanceTests.test_can_dump'
tp14
sI7
(S'/Users/msmith2/Projects/personal/GameServer/new_python/muse/test_db.py'
g8
S'DatabasePersistanceTests.test_load_bad_database_returns_none'
tp15
sI8
(S'/Users/msmith2/Projects/personal/GameServer/new_python/muse/test_db.py'
g8
S'DatabasePersistanceTests.test_old_db_is_overwritten'
tp16
sI9
(S'/Users/msmith2/Projects/personal/GameServer/new_python/muse/test_db.py'
g8
S'DatabasePersistanceTests.test_persistance_between_dump_load'
tp17
sI10
(S'/Users/msmith2/Projects/personal/GameServer/new_python/muse/test_db.py'
g8
S'DatabasePersistanceTests.test_persistance_of_object_structure_data'
tp18
sI11
(S'/Users/msmith2/Projects/personal/GameServer/new_python/muse/test_db.py'
g8
S'DatabaseSaveAndFindTests.test_object_lookup'
tp19
sI12
(S'/Users/msmith2/Projects/personal/GameServer/new_python/muse/test_db.py'
g8
S'DatabaseSaveAndFindTests.test_object_lookup_bad_object'
tp20
sI13
(S'/Users/msmith2/Projects/personal/GameServer/new_python/muse/test_db.py'
g8
S'DatabaseSaveAndFindTests.test_object_save_multiple'
tp21
sI14
(S'/Users/msmith2/Projects/personal/GameServer/new_python/muse/test_db.py'
g8
S'DatabaseSaveAndFindTests.test_stored_and_found_objects_are_same_object'
tp22
sI15
(S'/Users/msmith2/Projects/personal/GameServer/new_python/muse/test_game.py'
S'muse.test_game'
p23
S'GameObjectTests.test_game_class_exists'
tp24
sI16
(S'/Users/msmith2/Projects/personal/GameServer/new_python/muse/test_game.py'
g23
S'GameObjectTests.test_inject_config'
tp25
sI17
(S'/Users/msmith2/Projects/personal/GameServer/new_python/muse/test_game.py'
g23
S'GameObjectTests.test_no_config_on_init'
tp26
sI18
(S'/Users/msmith2/Projects/personal/GameServer/new_python/muse/test_game.py'
g23
S'GameObjectTests.test_start_network_connections'
tp27
sI19
(S'/Users/msmith2/Projects/personal/GameServer/new_python/muse/test_game.py'
g23
S'GameObjectTests.test_takes_config_object'
tp28
sI20
(S'/Users/msmith2/Projects/personal/GameServer/new_python/muse/test_game.py'
g23
S'GameTimerTests.test_keep_running_method'
tp29
sI21
(S'/Users/msmith2/Projects/personal/GameServer/new_python/muse/test_game.py'
g23
S'GameTimerTests.test_shutdown_stops_running'
tp30
sI22
(S'/Users/msmith2/Projects/personal/GameServer/new_python/muse/test_game.py'
g23
S'GameTimerTests.test_timer_exists'
tp31
ss.